V{"image.jpg": [["sports car, sport car", "0.831879"], ["car wheel", "0.117338"], ["racer, race car, racing car", "0.02934"], ["convertible", "0.0179836"], ["grille, radiator grille", "0.00157794"]]}
p0
.